; Function Attrs: mustprogress nounwind uwtable
define dso_local void @_ZN5clang13ASTDeclWriter31VisitConstructorUsingShadowDeclEPNS_26ConstructorUsingShadowDeclE(ptr noundef nonnull align 8 dereferenceable(241) %0, ptr noundef %1) local_unnamed_addr #0 align 2 {
  tail call void @_ZN5clang13ASTDeclWriter20VisitUsingShadowDeclEPNS_15UsingShadowDeclE(ptr noundef nonnull align 8 dereferenceable(241) %0, ptr noundef %1)
  %3 = getelementptr inbounds nuw i8, ptr %1, i64 80
  %4 = load ptr, ptr %3, align 8
  %5 = getelementptr inbounds nuw i8, ptr %0, i64 24
  %6 = load ptr, ptr %5, align 8
  %7 = getelementptr inbounds nuw i8, ptr %0, i64 32
  %8 = load ptr, ptr %7, align 8
  tail call void @_ZN5clang9ASTWriter10AddDeclRefEPKNS_4DeclERN4llvm15SmallVectorImplImEE(ptr noundef nonnull align 8 dereferenceable(3340) %6, ptr noundef %4, ptr noundef nonnull align 8 dereferenceable(16) %8) #19
  %9 = getelementptr inbounds nuw i8, ptr %1, i64 88
  %10 = load ptr, ptr %9, align 8
  %11 = load ptr, ptr %5, align 8
  %12 = load ptr, ptr %7, align 8
  tail call void @_ZN5clang9ASTWriter10AddDeclRefEPKNS_4DeclERN4llvm15SmallVectorImplImEE(ptr noundef nonnull align 8 dereferenceable(3340) %11, ptr noundef %10, ptr noundef nonnull align 8 dereferenceable(16) %12) #19
  %13 = getelementptr inbounds nuw i8, ptr %1, i64 96
  %14 = load i8, ptr %13, align 8
  %15 = load ptr, ptr %7, align 8
  %16 = tail call noundef i64 @_ZNK4llvm15SmallVectorBaseIjE4sizeEv(ptr noundef nonnull align 8 dereferenceable(16) %15) #19
  %17 = add i64 %16, 1
  %18 = tail call noundef i64 @_ZNK4llvm15SmallVectorBaseIjE8capacityEv(ptr noundef nonnull align 8 dereferenceable(16) %15) #19
  %.not.i.i.i.i = icmp ugt i64 %17, %18
  br i1 %.not.i.i.i.i, label %19, label %_ZN5clang15ASTRecordWriter9push_backEm.exit

19:                                               ; preds = %2
  %20 = getelementptr inbounds nuw i8, ptr %15, i64 16
  tail call void @_ZN4llvm15SmallVectorBaseIjE8grow_podEPvmm(ptr noundef nonnull align 8 dereferenceable(16) %15, ptr noundef nonnull %20, i64 noundef %17, i64 noundef 8) #19
  br label %_ZN5clang15ASTRecordWriter9push_backEm.exit

_ZN5clang15ASTRecordWriter9push_backEm.exit:      ; preds = %2, %19
  %21 = and i8 %14, 1
  %22 = zext nneg i8 %21 to i64
  %23 = load ptr, ptr %15, align 8
  %24 = tail call noundef i64 @_ZNK4llvm15SmallVectorBaseIjE4sizeEv(ptr noundef nonnull align 8 dereferenceable(16) %15) #19
  %25 = getelementptr inbounds i64, ptr %23, i64 %24
  store i64 %22, ptr %25, align 1
  %26 = tail call noundef i64 @_ZNK4llvm15SmallVectorBaseIjE4sizeEv(ptr noundef nonnull align 8 dereferenceable(16) %15) #19
  %27 = add i64 %26, 1
  tail call void @_ZN4llvm15SmallVectorBaseIjE8set_sizeEm(ptr noundef nonnull align 8 dereferenceable(16) %15, i64 noundef %27) #19
  %28 = getelementptr inbounds nuw i8, ptr %0, i64 232
  store i32 90, ptr %28, align 8
  ret void
}